; Function Attrs: null_pointer_is_valid sspstrong uwtable
define internal i32 @dissect_FMP_PlugIn_request(ptr noundef %0, ptr readnone captures(none) %1, ptr noundef %2, ptr readnone captures(none) %3) #0 {
  %.not.i = icmp eq ptr %2, null
  br i1 %.not.i, label %dissect_plugInID.exit, label %5

5:                                                ; preds = %4
  %6 = load i32, ptr @hf_fmp_plugInID, align 4
  %7 = tail call ptr @proto_tree_add_item(ptr noundef nonnull %2, i32 noundef %6, ptr noundef %0, i32 noundef 0, i32 noundef 16, i32 noundef 0)
  br label %dissect_plugInID.exit

dissect_plugInID.exit:                            ; preds = %4, %5
  %8 = load i32, ptr @hf_fmp_plugInBuf, align 4
  %9 = tail call i32 @dissect_rpc_data(ptr noundef %0, ptr noundef %2, i32 noundef %8, i32 noundef 0)
  ret i32 %9
}